target datalayout = "e-m:e-p270:32:32-p271:32:32-p272:64:64-i64:64-i128:128-f80:128-n8:16:32:64-S128"
target triple = "x86_64-pc-linux-gnu"

%"class.OpenSubdiv::v3_6_0::Bfr::Parameterization" = type { i8, i8, i16 }
%"class.OpenSubdiv::v3_6_0::Bfr::Tessellation" = type { %"class.OpenSubdiv::v3_6_0::Bfr::Parameterization", i8, i16, i32, i32, i32, i32, i32, i32, [2 x i32], ptr, [4 x i32] }

; Function Attrs: mustprogress nounwind uwtable
define void @_ZN10OpenSubdiv6v3_6_03Bfr12Tessellation26TransformFacetCoordIndicesEPii(ptr noundef nonnull align 8 dereferenceable(64) %0, ptr noundef %1, i32 noundef %2) #1 align 2 {
  %4 = alloca ptr, align 8
  %5 = alloca ptr, align 8
  %6 = alloca i32, align 4
  %7 = alloca i32, align 4
  %8 = alloca i32, align 4
  store ptr %0, ptr %4, align 8
  store ptr %1, ptr %5, align 8
  store i32 %2, ptr %6, align 4
  %9 = load ptr, ptr %4, align 8
  %10 = getelementptr inbounds nuw %"class.OpenSubdiv::v3_6_0::Bfr::Tessellation", ptr %9, i32 0, i32 2
  %11 = load i16, ptr %10, align 2
  %12 = sext i16 %11 to i32
  %13 = icmp eq i32 %12, 4
  br i1 %13, label %14, label %56

14:                                               ; preds = %3
  store i32 0, ptr %7, align 4
  br label %15

15:                                               ; preds = %47, %14
  %16 = load i32, ptr %7, align 4
  %17 = getelementptr inbounds nuw %"class.OpenSubdiv::v3_6_0::Bfr::Tessellation", ptr %9, i32 0, i32 8
  %18 = load i32, ptr %17, align 4
  %19 = icmp slt i32 %16, %18
  br i1 %19, label %20, label %55

20:                                               ; preds = %15
  %21 = load i32, ptr %6, align 4
  %22 = load ptr, ptr %5, align 8
  %23 = getelementptr inbounds i32, ptr %22, i64 0
  %24 = load i32, ptr %23, align 4
  %25 = add nsw i32 %24, %21
  store i32 %25, ptr %23, align 4
  %26 = load i32, ptr %6, align 4
  %27 = load ptr, ptr %5, align 8
  %28 = getelementptr inbounds i32, ptr %27, i64 1
  %29 = load i32, ptr %28, align 4
  %30 = add nsw i32 %29, %26
  store i32 %30, ptr %28, align 4
  %31 = load i32, ptr %6, align 4
  %32 = load ptr, ptr %5, align 8
  %33 = getelementptr inbounds i32, ptr %32, i64 2
  %34 = load i32, ptr %33, align 4
  %35 = add nsw i32 %34, %31
  store i32 %35, ptr %33, align 4
  %36 = load ptr, ptr %5, align 8
  %37 = getelementptr inbounds i32, ptr %36, i64 3
  %38 = load i32, ptr %37, align 4
  %39 = icmp sge i32 %38, 0
  br i1 %39, label %40, label %46

40:                                               ; preds = %20
  %41 = load i32, ptr %6, align 4
  %42 = load ptr, ptr %5, align 8
  %43 = getelementptr inbounds i32, ptr %42, i64 3
  %44 = load i32, ptr %43, align 4
  %45 = add nsw i32 %44, %41
  store i32 %45, ptr %43, align 4
  br label %46

46:                                               ; preds = %40, %20
  br label %47

47:                                               ; preds = %46
  %48 = load i32, ptr %7, align 4
  %49 = add nsw i32 %48, 1
  store i32 %49, ptr %7, align 4
  %50 = getelementptr inbounds nuw %"class.OpenSubdiv::v3_6_0::Bfr::Tessellation", ptr %9, i32 0, i32 3
  %51 = load i32, ptr %50, align 8
  %52 = load ptr, ptr %5, align 8
  %53 = sext i32 %51 to i64
  %54 = getelementptr inbounds i32, ptr %52, i64 %53
  store ptr %54, ptr %5, align 8
  br label %15, !llvm.loop !43

55:                                               ; preds = %15
  br label %87

56:                                               ; preds = %3
  store i32 0, ptr %8, align 4
  br label %57

57:                                               ; preds = %78, %56
  %58 = load i32, ptr %8, align 4
  %59 = getelementptr inbounds nuw %"class.OpenSubdiv::v3_6_0::Bfr::Tessellation", ptr %9, i32 0, i32 8
  %60 = load i32, ptr %59, align 4
  %61 = icmp slt i32 %58, %60
  br i1 %61, label %62, label %86

62:                                               ; preds = %57
  %63 = load i32, ptr %6, align 4
  %64 = load ptr, ptr %5, align 8
  %65 = getelementptr inbounds i32, ptr %64, i64 0
  %66 = load i32, ptr %65, align 4
  %67 = add nsw i32 %66, %63
  store i32 %67, ptr %65, align 4
  %68 = load i32, ptr %6, align 4
  %69 = load ptr, ptr %5, align 8
  %70 = getelementptr inbounds i32, ptr %69, i64 1
  %71 = load i32, ptr %70, align 4
  %72 = add nsw i32 %71, %68
  store i32 %72, ptr %70, align 4
  %73 = load i32, ptr %6, align 4
  %74 = load ptr, ptr %5, align 8
  %75 = getelementptr inbounds i32, ptr %74, i64 2
  %76 = load i32, ptr %75, align 4
  %77 = add nsw i32 %76, %73
  store i32 %77, ptr %75, align 4
  br label %78

78:                                               ; preds = %62
  %79 = load i32, ptr %8, align 4
  %80 = add nsw i32 %79, 1
  store i32 %80, ptr %8, align 4
  %81 = getelementptr inbounds nuw %"class.OpenSubdiv::v3_6_0::Bfr::Tessellation", ptr %9, i32 0, i32 3
  %82 = load i32, ptr %81, align 8
  %83 = load ptr, ptr %5, align 8
  %84 = sext i32 %82 to i64
  %85 = getelementptr inbounds i32, ptr %83, i64 %84
  store ptr %85, ptr %5, align 8
  br label %57, !llvm.loop !44

86:                                               ; preds = %57
  br label %87

87:                                               ; preds = %86, %55
  ret void
}