; Function Attrs: mustprogress nofree norecurse nosync nounwind memory(argmem: readwrite) uwtable
define void @_ZN10OpenSubdiv6v3_6_03Bfr12Tessellation26TransformFacetCoordIndicesEPii(ptr nocapture noundef nonnull readonly align 8 dereferenceable(64) %0, ptr nocapture noundef %1, i32 noundef %2) local_unnamed_addr #17 align 2 {
  %4 = getelementptr inbounds nuw i8, ptr %0, i64 6
  %5 = load i16, ptr %4, align 2
  %6 = icmp eq i16 %5, 4
  %7 = getelementptr inbounds nuw i8, ptr %0, i64 28
  %8 = load i32, ptr %7, align 4
  %9 = icmp sgt i32 %8, 0
  br i1 %6, label %.preheader, label %.preheader24

.preheader24:                                     ; preds = %3
  br i1 %9, label %.lr.ph, label %.loopexit

.lr.ph:                                           ; preds = %.preheader24
  %10 = getelementptr inbounds nuw i8, ptr %0, i64 8
  br label %33

.preheader:                                       ; preds = %3
  br i1 %9, label %.lr.ph30, label %.loopexit

.lr.ph30:                                         ; preds = %.preheader
  %11 = getelementptr inbounds nuw i8, ptr %0, i64 8
  br label %12

12:                                               ; preds = %.lr.ph30, %26
  %.02129 = phi i32 [ 0, %.lr.ph30 ], [ %27, %26 ]
  %.02228 = phi ptr [ %1, %.lr.ph30 ], [ %30, %26 ]
  %13 = load i32, ptr %.02228, align 4
  %14 = add nsw i32 %13, %2
  store i32 %14, ptr %.02228, align 4
  %15 = getelementptr inbounds i8, ptr %.02228, i64 4
  %16 = load i32, ptr %15, align 4
  %17 = add nsw i32 %16, %2
  store i32 %17, ptr %15, align 4
  %18 = getelementptr inbounds i8, ptr %.02228, i64 8
  %19 = load i32, ptr %18, align 4
  %20 = add nsw i32 %19, %2
  store i32 %20, ptr %18, align 4
  %21 = getelementptr inbounds i8, ptr %.02228, i64 12
  %22 = load i32, ptr %21, align 4
  %23 = icmp sgt i32 %22, -1
  br i1 %23, label %24, label %26

24:                                               ; preds = %12
  %25 = add nsw i32 %22, %2
  store i32 %25, ptr %21, align 4
  br label %26

26:                                               ; preds = %12, %24
  %27 = add nuw nsw i32 %.02129, 1
  %28 = load i32, ptr %11, align 8
  %29 = sext i32 %28 to i64
  %30 = getelementptr inbounds i32, ptr %.02228, i64 %29
  %31 = load i32, ptr %7, align 4
  %32 = icmp slt i32 %27, %31
  br i1 %32, label %12, label %.loopexit, !llvm.loop !168

33:                                               ; preds = %.lr.ph, %33
  %.027 = phi i32 [ 0, %.lr.ph ], [ %42, %33 ]
  %.126 = phi ptr [ %1, %.lr.ph ], [ %45, %33 ]
  %34 = load i32, ptr %.126, align 4
  %35 = add nsw i32 %34, %2
  store i32 %35, ptr %.126, align 4
  %36 = getelementptr inbounds i8, ptr %.126, i64 4
  %37 = load i32, ptr %36, align 4
  %38 = add nsw i32 %37, %2
  store i32 %38, ptr %36, align 4
  %39 = getelementptr inbounds i8, ptr %.126, i64 8
  %40 = load i32, ptr %39, align 4
  %41 = add nsw i32 %40, %2
  store i32 %41, ptr %39, align 4
  %42 = add nuw nsw i32 %.027, 1
  %43 = load i32, ptr %10, align 8
  %44 = sext i32 %43 to i64
  %45 = getelementptr inbounds i32, ptr %.126, i64 %44
  %46 = load i32, ptr %7, align 4
  %47 = icmp slt i32 %42, %46
  br i1 %47, label %33, label %.loopexit, !llvm.loop !169

.loopexit:                                        ; preds = %33, %26, %.preheader24, %.preheader
  ret void
}